; Function Attrs: nounwind sspstrong uwtable
define dso_local void @bdrv_dirty_bitmap_lock(ptr noundef readonly captures(none) %bitmap) local_unnamed_addr #0 {
entry:
  %0 = load ptr, ptr %bitmap, align 8
  %1 = load atomic i64, ptr @qemu_mutex_lock_func monotonic, align 8
  %2 = inttoptr i64 %1 to ptr
  %dirty_bitmap_mutex.i = getelementptr inbounds nuw i8, ptr %0, i64 16904
  tail call void %2(ptr noundef nonnull %dirty_bitmap_mutex.i, ptr noundef nonnull @.str.1, i32 noundef 66) #14
  ret void
}